target datalayout = "e-m:e-p270:32:32-p271:32:32-p272:64:64-i64:64-i128:128-f80:128-n8:16:32:64-S128"
target triple = "x86_64-pc-linux-gnu"

; Function Attrs: nounwind uwtable
define internal i32 @rand_cmp(ptr noundef %0, ptr noundef %1) #0 {
  %3 = alloca ptr, align 8
  %4 = alloca ptr, align 8
  %5 = alloca i32, align 4
  store ptr %0, ptr %3, align 8, !tbaa !168
  store ptr %1, ptr %4, align 8, !tbaa !168
  call void @llvm.lifetime.start.p0(i64 4, ptr %5) #7
  %6 = load ptr, ptr %3, align 8, !tbaa !168
  %7 = load ptr, ptr %6, align 8, !tbaa !99
  %8 = call ptr @EVP_RAND_get0_name(ptr noundef %7)
  %9 = load ptr, ptr %4, align 8, !tbaa !168
  %10 = load ptr, ptr %9, align 8, !tbaa !99
  %11 = call ptr @EVP_RAND_get0_name(ptr noundef %10)
  %12 = call i32 @OPENSSL_strcasecmp(ptr noundef %8, ptr noundef %11)
  store i32 %12, ptr %5, align 4, !tbaa !4
  %13 = load i32, ptr %5, align 4, !tbaa !4
  %14 = icmp eq i32 %13, 0
  br i1 %14, label %15, label %25

15:                                               ; preds = %2
  %16 = load ptr, ptr %3, align 8, !tbaa !168
  %17 = load ptr, ptr %16, align 8, !tbaa !99
  %18 = call ptr @EVP_RAND_get0_provider(ptr noundef %17)
  %19 = call ptr @OSSL_PROVIDER_get0_name(ptr noundef %18)
  %20 = load ptr, ptr %4, align 8, !tbaa !168
  %21 = load ptr, ptr %20, align 8, !tbaa !99
  %22 = call ptr @EVP_RAND_get0_provider(ptr noundef %21)
  %23 = call ptr @OSSL_PROVIDER_get0_name(ptr noundef %22)
  %24 = call i32 @strcmp(ptr noundef %19, ptr noundef %23) #8
  store i32 %24, ptr %5, align 4, !tbaa !4
  br label %25

25:                                               ; preds = %15, %2
  %26 = load i32, ptr %5, align 4, !tbaa !4
  call void @llvm.lifetime.end.p0(i64 4, ptr %5) #7
  ret i32 %26
}