; Function Attrs: nounwind uwtable
define internal i32 @rand_cmp(ptr noundef readonly captures(none) %0, ptr noundef readonly captures(none) %1) #0 {
  %3 = load ptr, ptr %0, align 8, !tbaa !85
  %4 = tail call ptr @EVP_RAND_get0_name(ptr noundef %3) #6
  %5 = load ptr, ptr %1, align 8, !tbaa !85
  %6 = tail call ptr @EVP_RAND_get0_name(ptr noundef %5) #6
  %7 = tail call i32 @OPENSSL_strcasecmp(ptr noundef %4, ptr noundef %6) #6
  %8 = icmp eq i32 %7, 0
  br i1 %8, label %9, label %17

9:                                                ; preds = %2
  %10 = load ptr, ptr %0, align 8, !tbaa !85
  %11 = tail call ptr @EVP_RAND_get0_provider(ptr noundef %10) #6
  %12 = tail call ptr @OSSL_PROVIDER_get0_name(ptr noundef %11) #6
  %13 = load ptr, ptr %1, align 8, !tbaa !85
  %14 = tail call ptr @EVP_RAND_get0_provider(ptr noundef %13) #6
  %15 = tail call ptr @OSSL_PROVIDER_get0_name(ptr noundef %14) #6
  %16 = tail call i32 @strcmp(ptr noundef nonnull dereferenceable(1) %12, ptr noundef nonnull dereferenceable(1) %15) #7
  br label %17

17:                                               ; preds = %9, %2
  %.0 = phi i32 [ %16, %9 ], [ %7, %2 ]
  ret i32 %.0
}